target datalayout = "e-m:e-p270:32:32-p271:32:32-p272:64:64-i64:64-i128:128-f80:128-n8:16:32:64-S128"
target triple = "x86_64-pc-linux-gnu"

%"class.absl::lts_20240722::Status" = type { i64 }
%"class.grpc_core::DebugLocation" = type { i8 }
%struct.grpc_wakeup_fd = type { i32, i32 }
%"class.absl::lts_20240722::log_internal::Voidify" = type { i8 }
%"class.absl::lts_20240722::log_internal::LogMessageFatal" = type { %"class.absl::lts_20240722::log_internal::LogMessage" }
%"class.absl::lts_20240722::log_internal::LogMessage" = type { %"class.absl::lts_20240722::base_internal::ErrnoSaver", %"class.std::unique_ptr" }
%"class.absl::lts_20240722::base_internal::ErrnoSaver" = type { i32 }
%"class.std::unique_ptr" = type { %"struct.std::__uniq_ptr_data" }
%"struct.std::__uniq_ptr_data" = type { %"class.std::__uniq_ptr_impl" }
%"class.std::__uniq_ptr_impl" = type { %"class.std::tuple" }
%"class.std::tuple" = type { %"struct.std::_Tuple_impl" }
%"struct.std::_Tuple_impl" = type { %"struct.std::_Head_base.1" }
%"struct.std::_Head_base.1" = type { ptr }
%"class.std::basic_string_view" = type { i64, ptr }

@.str = private unnamed_addr constant [127 x i8] c"generated/home/dtcxzyw/WorkSpace/Projects/compilers/llvm-opt-benchmark/bench/grpc/grpc/src/core/lib/iomgr/wakeup_fd_eventfd.cc\00", align 1
@.str.2 = private unnamed_addr constant [114 x i8] c"generated/home/dtcxzyw/WorkSpace/Projects/compilers/llvm-opt-benchmark/bench/grpc/grpc/src/core/lib/iomgr/error.h\00", align 1
@.str.3 = private unnamed_addr constant [12 x i8] c"!error.ok()\00", align 1
@.str.4 = private unnamed_addr constant [13 x i8] c"eventfd_read\00", align 1

; Function Attrs: inlinehint mustprogress nounwind uwtable
define linkonce_odr void @_ZN4absl12lts_202407226StatusC2ENS0_10StatusCodeE(ptr noundef nonnull align 8 dereferenceable(8) %0, i32 noundef %1) unnamed_addr #9 comdat align 2 {
  %3 = alloca ptr, align 8
  %4 = alloca i32, align 4
  store ptr %0, ptr %3, align 8, !tbaa !16
  store i32 %1, ptr %4, align 4, !tbaa !34
  %5 = load ptr, ptr %3, align 8
  %6 = load i32, ptr %4, align 4, !tbaa !34
  %7 = call noundef i64 @_ZN4absl12lts_202407226Status16CodeToInlinedRepENS0_10StatusCodeE(i32 noundef %6)
  call void @_ZN4absl12lts_202407226StatusC2Em(ptr noundef nonnull align 8 dereferenceable(8) %5, i64 noundef %7)
  ret void
}

; Function Attrs: mustprogress nounwind uwtable
define linkonce_odr noundef i64 @_ZN4absl12lts_202407226Status12MovedFromRepEv() #7 comdat align 2 {
  %1 = call noundef i64 @_ZN4absl12lts_202407226Status16CodeToInlinedRepENS0_10StatusCodeE(i32 noundef 13)
  %2 = or i64 %1, 2
  ret i64 %2
}

; Function Attrs: mustprogress nounwind uwtable
define linkonce_odr void @_ZN4absl12lts_202407226StatusC2Em(ptr noundef nonnull align 8 dereferenceable(8) %0, i64 noundef %1) unnamed_addr #7 comdat align 2 {
  %3 = alloca ptr, align 8
  %4 = alloca i64, align 8
  store ptr %0, ptr %3, align 8, !tbaa !16
  store i64 %1, ptr %4, align 8, !tbaa !36
  %5 = load ptr, ptr %3, align 8
  %6 = getelementptr inbounds nuw %"class.absl::lts_20240722::Status", ptr %5, i32 0, i32 0
  %7 = load i64, ptr %4, align 8, !tbaa !36
  store i64 %7, ptr %6, align 8, !tbaa !22
  ret void
}

; Function Attrs: noinline noreturn nounwind uwtable
define linkonce_odr hidden void @__clang_call_terminate(ptr noundef %0) #13 comdat {
  %2 = call ptr @__cxa_begin_catch(ptr %0) #3
  call void @_ZSt9terminatev() #16
  unreachable
}

; Function Attrs: mustprogress nounwind uwtable
define linkonce_odr noundef i64 @_ZNSt11char_traitsIcE6lengthEPKc(ptr noundef %0) #7 comdat align 2 {
  %2 = alloca ptr, align 8
  store ptr %0, ptr %2, align 8, !tbaa !20
  %3 = load ptr, ptr %2, align 8, !tbaa !20
  %4 = call i64 @strlen(ptr noundef %3) #3
  ret i64 %4
}

; Function Attrs: mustprogress nounwind uwtable
define linkonce_odr noundef i64 @_ZN4absl12lts_202407226Status16CodeToInlinedRepENS0_10StatusCodeE(i32 noundef %0) #7 comdat align 2 {
  %2 = alloca i32, align 4
  store i32 %0, ptr %2, align 4, !tbaa !34
  %3 = load i32, ptr %2, align 4, !tbaa !34
  %4 = sext i32 %3 to i64
  %5 = shl i64 %4, 2
  %6 = add i64 %5, 1
  ret i64 %6
}

; Function Attrs: inlinehint mustprogress uwtable
define linkonce_odr void @_ZN4absl12lts_202407226StatusC2Ev(ptr noundef nonnull align 8 dereferenceable(8) %0) unnamed_addr #5 comdat align 2 {
  %2 = alloca ptr, align 8
  store ptr %0, ptr %2, align 8, !tbaa !16
  %3 = load ptr, ptr %2, align 8
  call void @_ZN4absl12lts_202407226StatusC2ENS0_10StatusCodeE(ptr noundef nonnull align 8 dereferenceable(8) %3, i32 noundef 0)
  ret void
}

; Function Attrs: inlinehint mustprogress nounwind uwtable
define linkonce_odr void @_ZN4absl12lts_202407226StatusC2EOS1_(ptr noundef nonnull align 8 dereferenceable(8) %0, ptr noundef nonnull align 8 dereferenceable(8) %1) unnamed_addr #9 comdat align 2 personality ptr @__gxx_personality_v0 {
  %3 = alloca ptr, align 8
  %4 = alloca ptr, align 8
  store ptr %0, ptr %3, align 8, !tbaa !16
  store ptr %1, ptr %4, align 8, !tbaa !16
  %5 = load ptr, ptr %3, align 8
  %6 = load ptr, ptr %4, align 8, !tbaa !16
  %7 = getelementptr inbounds nuw %"class.absl::lts_20240722::Status", ptr %6, i32 0, i32 0
  %8 = load i64, ptr %7, align 8, !tbaa !22
  invoke void @_ZN4absl12lts_202407226StatusC2Em(ptr noundef nonnull align 8 dereferenceable(8) %5, i64 noundef %8)
          to label %9 unwind label %14

9:                                                ; preds = %2
  %10 = invoke noundef i64 @_ZN4absl12lts_202407226Status12MovedFromRepEv()
          to label %11 unwind label %14

11:                                               ; preds = %9
  %12 = load ptr, ptr %4, align 8, !tbaa !16
  %13 = getelementptr inbounds nuw %"class.absl::lts_20240722::Status", ptr %12, i32 0, i32 0
  store i64 %10, ptr %13, align 8, !tbaa !22
  ret void

14:                                               ; preds = %9, %2
  %15 = landingpad { ptr, i32 }
          catch ptr null
  %16 = extractvalue { ptr, i32 } %15, 0
  call void @__clang_call_terminate(ptr %16) #16
  unreachable
}

; Function Attrs: mustprogress nounwind uwtable
define linkonce_odr void @_ZNKO4absl12lts_2024072212log_internal7VoidifyaaINS1_10LogMessageEEEvRKT_(ptr noundef nonnull align 1 dereferenceable(1) %0, ptr noundef nonnull align 8 dereferenceable(16) %1) #7 comdat align 2 {
  %3 = alloca ptr, align 8
  %4 = alloca ptr, align 8
  store ptr %0, ptr %3, align 8, !tbaa !25
  store ptr %1, ptr %4, align 8, !tbaa !27
  ret void
}

; Function Attrs: mustprogress nounwind uwtable
define linkonce_odr noundef nonnull align 8 dereferenceable(16) ptr @_ZN4absl12lts_2024072212log_internal10LogMessage14InternalStreamEv(ptr noundef nonnull align 8 dereferenceable(16) %0) #7 comdat align 2 {
  %2 = alloca ptr, align 8
  store ptr %0, ptr %2, align 8, !tbaa !27
  %3 = load ptr, ptr %2, align 8
  ret ptr %3
}

; Function Attrs: mustprogress nounwind uwtable
define linkonce_odr void @_ZNSt17basic_string_viewIcSt11char_traitsIcEEC2EPKc(ptr noundef nonnull align 8 dereferenceable(16) %0, ptr noundef nonnull %1) unnamed_addr #7 comdat align 2 personality ptr @__gxx_personality_v0 {
  %3 = alloca ptr, align 8
  %4 = alloca ptr, align 8
  store ptr %0, ptr %3, align 8, !tbaa !29
  store ptr %1, ptr %4, align 8, !tbaa !20
  %5 = load ptr, ptr %3, align 8
  %6 = getelementptr inbounds nuw %"class.std::basic_string_view", ptr %5, i32 0, i32 0
  %7 = load ptr, ptr %4, align 8, !tbaa !20
  %8 = invoke noundef i64 @_ZNSt11char_traitsIcE6lengthEPKc(ptr noundef %7)
          to label %9 unwind label %12

9:                                                ; preds = %2
  store i64 %8, ptr %6, align 8, !tbaa !31
  %10 = getelementptr inbounds nuw %"class.std::basic_string_view", ptr %5, i32 0, i32 1
  %11 = load ptr, ptr %4, align 8, !tbaa !20
  store ptr %11, ptr %10, align 8, !tbaa !33
  ret void

12:                                               ; preds = %2
  %13 = landingpad { ptr, i32 }
          catch ptr null
  %14 = extractvalue { ptr, i32 } %13, 0
  call void @__clang_call_terminate(ptr %14) #16
  unreachable
}

; Function Attrs: inlinehint mustprogress uwtable
define linkonce_odr noundef zeroext i1 @_ZNK4absl12lts_202407226Status2okEv(ptr noundef nonnull align 8 dereferenceable(8) %0) #5 comdat align 2 {
  %2 = alloca ptr, align 8
  store ptr %0, ptr %2, align 8, !tbaa !16
  %3 = load ptr, ptr %2, align 8
  %4 = getelementptr inbounds nuw %"class.absl::lts_20240722::Status", ptr %3, i32 0, i32 0
  %5 = load i64, ptr %4, align 8, !tbaa !22
  %6 = call noundef i64 @_ZN4absl12lts_202407226Status16CodeToInlinedRepENS0_10StatusCodeE(i32 noundef 0)
  %7 = icmp eq i64 %5, %6
  ret i1 %7
}

; Function Attrs: inlinehint mustprogress uwtable
define linkonce_odr void @_ZN4absl12lts_202407228OkStatusEv(ptr dead_on_unwind noalias writable sret(%"class.absl::lts_20240722::Status") align 8 %0) #5 comdat {
  %2 = alloca ptr, align 8
  store ptr %0, ptr %2, align 8
  call void @_ZN4absl12lts_202407226StatusC2Ev(ptr noundef nonnull align 8 dereferenceable(8) %0)
  ret void
}

; Function Attrs: inlinehint mustprogress uwtable
define linkonce_odr void @_Z20grpc_assert_never_okN4absl12lts_202407226StatusE(ptr dead_on_unwind noalias writable sret(%"class.absl::lts_20240722::Status") align 8 %0, ptr noundef %1) #5 comdat personality ptr @__gxx_personality_v0 {
  %3 = alloca ptr, align 8
  %4 = alloca ptr, align 8
  %5 = alloca %"class.absl::lts_20240722::log_internal::Voidify", align 1
  %6 = alloca %"class.absl::lts_20240722::log_internal::LogMessageFatal", align 8
  %7 = alloca i1, align 1
  %8 = alloca %"class.std::basic_string_view", align 8
  %9 = alloca i1, align 1
  %10 = alloca ptr, align 8
  %11 = alloca i32, align 4
  store ptr %0, ptr %3, align 8
  store ptr %1, ptr %4, align 8, !tbaa !16
  %12 = call noundef zeroext i1 @_ZNK4absl12lts_202407226Status2okEv(ptr noundef nonnull align 8 dereferenceable(8) %1)
  %13 = xor i1 %12, true
  %14 = xor i1 %13, true
  %15 = zext i1 %14 to i64
  %16 = call i64 @llvm.expect.i64(i64 %15, i64 0)
  %17 = icmp ne i64 %16, 0
  call void @llvm.lifetime.start.p0(i64 1, ptr %5) #3
  store i1 false, ptr %7, align 1
  store i1 false, ptr %9, align 1
  br i1 %17, label %19, label %18

18:                                               ; preds = %2
  br label %27

19:                                               ; preds = %2
  call void @llvm.lifetime.start.p0(i64 16, ptr %6) #3
  store i1 true, ptr %7, align 1
  call void @_ZNSt17basic_string_viewIcSt11char_traitsIcEEC2EPKc(ptr noundef nonnull align 8 dereferenceable(16) %8, ptr noundef @.str.3) #3
  %20 = getelementptr inbounds nuw { i64, ptr }, ptr %8, i32 0, i32 0
  %21 = load i64, ptr %20, align 8
  %22 = getelementptr inbounds nuw { i64, ptr }, ptr %8, i32 0, i32 1
  %23 = load ptr, ptr %22, align 8
  call void @_ZN4absl12lts_2024072212log_internal15LogMessageFatalC1EPKciSt17basic_string_viewIcSt11char_traitsIcEE(ptr noundef nonnull align 8 dereferenceable(16) %6, ptr noundef @.str.2, i32 noundef 75, i64 %21, ptr %23) #15
  store i1 true, ptr %9, align 1
  %24 = invoke noundef nonnull align 8 dereferenceable(16) ptr @_ZN4absl12lts_2024072212log_internal10LogMessage14InternalStreamEv(ptr noundef nonnull align 8 dereferenceable(16) %6)
          to label %25 unwind label %30

25:                                               ; preds = %19
  invoke void @_ZNKO4absl12lts_2024072212log_internal7VoidifyaaINS1_10LogMessageEEEvRKT_(ptr noundef nonnull align 1 dereferenceable(1) %5, ptr noundef nonnull align 8 dereferenceable(16) %24)
          to label %26 unwind label %30

26:                                               ; preds = %25
  br label %27

27:                                               ; preds = %26, %18
  %28 = load i1, ptr %9, align 1
  br i1 %28, label %29, label %36

29:                                               ; preds = %27
  call void @_ZN4absl12lts_2024072212log_internal15LogMessageFatalD1Ev(ptr noundef nonnull align 8 dereferenceable(16) %6) #16
  unreachable

30:                                               ; preds = %25, %19
  %31 = landingpad { ptr, i32 }
          cleanup
  %32 = extractvalue { ptr, i32 } %31, 0
  store ptr %32, ptr %10, align 8
  %33 = extractvalue { ptr, i32 } %31, 1
  store i32 %33, ptr %11, align 4
  %34 = load i1, ptr %9, align 1
  br i1 %34, label %40, label %42

35:                                               ; No predecessors!
  br label %36

36:                                               ; preds = %35, %27
  %37 = load i1, ptr %7, align 1
  br i1 %37, label %38, label %39

38:                                               ; preds = %36
  call void @llvm.lifetime.end.p0(i64 16, ptr %6) #3
  br label %39

39:                                               ; preds = %38, %36
  call void @llvm.lifetime.end.p0(i64 1, ptr %5) #3
  call void @_ZN4absl12lts_202407226StatusC2EOS1_(ptr noundef nonnull align 8 dereferenceable(8) %0, ptr noundef nonnull align 8 dereferenceable(8) %1) #3
  ret void

40:                                               ; preds = %30
  call void @_ZN4absl12lts_2024072212log_internal15LogMessageFatalD1Ev(ptr noundef nonnull align 8 dereferenceable(16) %6) #16
  unreachable

41:                                               ; No predecessors!
  br label %42

42:                                               ; preds = %41, %30
  %43 = load i1, ptr %7, align 1
  br i1 %43, label %44, label %45

44:                                               ; preds = %42
  call void @llvm.lifetime.end.p0(i64 16, ptr %6) #3
  br label %45

45:                                               ; preds = %44, %42
  call void @llvm.lifetime.end.p0(i64 1, ptr %5) #3
  br label %46

46:                                               ; preds = %45
  %47 = load ptr, ptr %10, align 8
  %48 = load i32, ptr %11, align 4
  %49 = insertvalue { ptr, i32 } poison, ptr %47, 0
  %50 = insertvalue { ptr, i32 } %49, i32 %48, 1
  resume { ptr, i32 } %50
}

; Function Attrs: mustprogress nounwind uwtable
define linkonce_odr void @_ZN9grpc_core13DebugLocationC2EPKci(ptr noundef nonnull align 1 dereferenceable(1) %0, ptr noundef %1, i32 noundef %2) unnamed_addr #7 comdat align 2 {
  %4 = alloca ptr, align 8
  %5 = alloca ptr, align 8
  %6 = alloca i32, align 4
  store ptr %0, ptr %4, align 8, !tbaa !18
  store ptr %1, ptr %5, align 8, !tbaa !20
  store i32 %2, ptr %6, align 4, !tbaa !12
  ret void
}

; Function Attrs: mustprogress uwtable
define internal void @_ZL15eventfd_consumeP14grpc_wakeup_fd(ptr dead_on_unwind noalias writable sret(%"class.absl::lts_20240722::Status") align 8 %0, ptr noundef %1) #4 personality ptr @__gxx_personality_v0 {
  %3 = alloca ptr, align 8
  %4 = alloca ptr, align 8
  %5 = alloca i64, align 8
  %6 = alloca i32, align 4
  %7 = alloca %"class.absl::lts_20240722::Status", align 8
  %8 = alloca %"class.grpc_core::DebugLocation", align 1
  %9 = alloca ptr, align 8
  %10 = alloca i32, align 4
  %11 = alloca i32, align 4
  store ptr %0, ptr %3, align 8
  store ptr %1, ptr %4, align 8, !tbaa !3
  call void @llvm.lifetime.start.p0(i64 8, ptr %5) #3
  call void @llvm.lifetime.start.p0(i64 4, ptr %6) #3
  br label %12

12:                                               ; preds = %24, %2
  %13 = load ptr, ptr %4, align 8, !tbaa !3
  %14 = getelementptr inbounds nuw %struct.grpc_wakeup_fd, ptr %13, i32 0, i32 0
  %15 = load i32, ptr %14, align 4, !tbaa !8
  %16 = call i32 @eventfd_read(i32 noundef %15, ptr noundef %5)
  store i32 %16, ptr %6, align 4, !tbaa !12
  br label %17

17:                                               ; preds = %12
  %18 = load i32, ptr %6, align 4, !tbaa !12
  %19 = icmp slt i32 %18, 0
  br i1 %19, label %20, label %24

20:                                               ; preds = %17
  %21 = call ptr @__errno_location() #14
  %22 = load i32, ptr %21, align 4, !tbaa !12
  %23 = icmp eq i32 %22, 4
  br label %24

24:                                               ; preds = %20, %17
  %25 = phi i1 [ false, %17 ], [ %23, %20 ]
  br i1 %25, label %12, label %26, !llvm.loop !13

26:                                               ; preds = %24
  %27 = load i32, ptr %6, align 4, !tbaa !12
  %28 = icmp slt i32 %27, 0
  br i1 %28, label %29, label %41

29:                                               ; preds = %26
  %30 = call ptr @__errno_location() #14
  %31 = load i32, ptr %30, align 4, !tbaa !12
  %32 = icmp ne i32 %31, 11
  br i1 %32, label %33, label %41

33:                                               ; preds = %29
  call void @llvm.lifetime.start.p0(i64 1, ptr %8) #3
  call void @_ZN9grpc_core13DebugLocationC2EPKci(ptr noundef nonnull align 1 dereferenceable(1) %8, ptr noundef @.str, i32 noundef 49)
  %34 = call ptr @__errno_location() #14
  %35 = load i32, ptr %34, align 4, !tbaa !12
  call void @_Z13grpc_os_errorRKN9grpc_core13DebugLocationEiPKc(ptr dead_on_unwind writable sret(%"class.absl::lts_20240722::Status") align 8 %7, ptr noundef nonnull align 1 dereferenceable(1) %8, i32 noundef %35, ptr noundef @.str.4)
  invoke void @_Z20grpc_assert_never_okN4absl12lts_202407226StatusE(ptr dead_on_unwind writable sret(%"class.absl::lts_20240722::Status") align 8 %0, ptr noundef %7)
          to label %36 unwind label %37

36:                                               ; preds = %33
  call void @_ZN4absl12lts_202407226StatusD2Ev(ptr noundef nonnull align 8 dereferenceable(8) %7) #3
  call void @llvm.lifetime.end.p0(i64 1, ptr %8) #3
  store i32 1, ptr %11, align 4
  br label %42

37:                                               ; preds = %33
  %38 = landingpad { ptr, i32 }
          cleanup
  %39 = extractvalue { ptr, i32 } %38, 0
  store ptr %39, ptr %9, align 8
  %40 = extractvalue { ptr, i32 } %38, 1
  store i32 %40, ptr %10, align 4
  call void @_ZN4absl12lts_202407226StatusD2Ev(ptr noundef nonnull align 8 dereferenceable(8) %7) #3
  call void @llvm.lifetime.end.p0(i64 1, ptr %8) #3
  call void @llvm.lifetime.end.p0(i64 4, ptr %6) #3
  call void @llvm.lifetime.end.p0(i64 8, ptr %5) #3
  br label %43

41:                                               ; preds = %29, %26
  call void @_ZN4absl12lts_202407228OkStatusEv(ptr dead_on_unwind writable sret(%"class.absl::lts_20240722::Status") align 8 %0)
  store i32 1, ptr %11, align 4
  br label %42

42:                                               ; preds = %41, %36
  call void @llvm.lifetime.end.p0(i64 4, ptr %6) #3
  call void @llvm.lifetime.end.p0(i64 8, ptr %5) #3
  ret void

43:                                               ; preds = %37
  %44 = load ptr, ptr %9, align 8
  %45 = load i32, ptr %10, align 4
  %46 = insertvalue { ptr, i32 } poison, ptr %44, 0
  %47 = insertvalue { ptr, i32 } %46, i32 %45, 1
  resume { ptr, i32 } %47
}