; Function Attrs: mustprogress uwtable
define internal void @_ZL15eventfd_consumeP14grpc_wakeup_fd(ptr dead_on_unwind noalias writable writeonly sret(%"class.absl::lts_20240722::Status") align 8 captures(none) %0, ptr noundef readonly captures(none) %1) #3 personality ptr @__gxx_personality_v0 {
  %3 = alloca %"class.absl::lts_20240722::log_internal::LogMessageFatal", align 8
  %4 = alloca i64, align 8
  %5 = alloca %"class.absl::lts_20240722::Status", align 8
  %6 = alloca %"class.grpc_core::DebugLocation", align 1
  call void @llvm.lifetime.start.p0(i64 8, ptr nonnull %4) #13
  br label %7

7:                                                ; preds = %11, %2
  %8 = load i32, ptr %1, align 4, !tbaa !3
  %9 = call i32 @eventfd_read(i32 noundef %8, ptr noundef nonnull %4)
  %10 = icmp slt i32 %9, 0
  br i1 %10, label %11, label %.critedge4

11:                                               ; preds = %7
  %12 = tail call ptr @__errno_location() #14
  %13 = load i32, ptr %12, align 4, !tbaa !9
  switch i32 %13, label %14 [
    i32 4, label %7
    i32 11, label %.critedge4
  ]

14:                                               ; preds = %11
  call void @llvm.lifetime.start.p0(i64 1, ptr nonnull %6) #13
  call void @_Z13grpc_os_errorRKN9grpc_core13DebugLocationEiPKc(ptr dead_on_unwind nonnull writable sret(%"class.absl::lts_20240722::Status") align 8 %5, ptr noundef nonnull align 1 dereferenceable(1) %6, i32 noundef %13, ptr noundef nonnull @.str.4)
  call void @llvm.experimental.noalias.scope.decl(metadata !20)
  %15 = load i64, ptr %5, align 8, !tbaa !13, !noalias !20
  %16 = icmp eq i64 %15, 1
  br i1 %16, label %17, label %_ZN4absl12lts_202407226StatusD2Ev.exit, !prof !16

17:                                               ; preds = %14
  call void @llvm.lifetime.start.p0(i64 16, ptr nonnull %3) #13, !noalias !20
  invoke void @_ZN4absl12lts_2024072212log_internal15LogMessageFatalC1EPKciSt17basic_string_viewIcSt11char_traitsIcEE(ptr noundef nonnull align 8 dereferenceable(16) %3, ptr noundef nonnull @.str.2, i32 noundef 75, i64 11, ptr nonnull @.str.3) #15
          to label %.noexc unwind label %18

.noexc:                                           ; preds = %17
  call void @_ZN4absl12lts_2024072212log_internal15LogMessageFatalD1Ev(ptr noundef nonnull align 8 dereferenceable(16) %3) #16, !noalias !20
  unreachable

_ZN4absl12lts_202407226StatusD2Ev.exit:           ; preds = %14
  store i64 %15, ptr %0, align 8, !tbaa !13, !alias.scope !20
  call void @llvm.lifetime.end.p0(i64 1, ptr nonnull %6) #13
  br label %20

18:                                               ; preds = %17
  %19 = landingpad { ptr, i32 }
          cleanup
  call void @_ZN4absl12lts_202407226StatusD2Ev(ptr noundef nonnull align 8 dereferenceable(8) %5) #13
  call void @llvm.lifetime.end.p0(i64 1, ptr nonnull %6) #13
  call void @llvm.lifetime.end.p0(i64 8, ptr nonnull %4) #13
  resume { ptr, i32 } %19

.critedge4:                                       ; preds = %11, %7
  store i64 1, ptr %0, align 8, !tbaa !13, !alias.scope !23
  br label %20

20:                                               ; preds = %.critedge4, %_ZN4absl12lts_202407226StatusD2Ev.exit
  call void @llvm.lifetime.end.p0(i64 8, ptr nonnull %4) #13
  ret void
}